; Function Attrs: nounwind uwtable
define internal void @dataSourceHandleSend(ptr readnone captures(none) %0, ptr noundef readnone captures(address) %1, ptr noundef readonly captures(none) %2, i32 noundef %3) #0 {
  %5 = load ptr, ptr getelementptr inbounds nuw (i8, ptr @_glfw, i64 134056), align 8, !tbaa !343
  %.not = icmp eq ptr %5, %1
  br i1 %.not, label %6, label %.loopexit

6:                                                ; preds = %4
  %7 = tail call i32 @strcmp(ptr noundef nonnull dereferenceable(1) %2, ptr noundef nonnull dereferenceable(25) @.str.32) #22
  %.not19 = icmp eq i32 %7, 0
  br i1 %.not19, label %8, label %.loopexit

8:                                                ; preds = %6
  %9 = load ptr, ptr getelementptr inbounds nuw (i8, ptr @_glfw, i64 134160), align 8, !tbaa !344
  %10 = tail call i64 @strlen(ptr noundef nonnull dereferenceable(1) %9) #22
  %.not2026 = icmp eq i64 %10, 0
  br i1 %.not2026, label %.loopexit, label %.lr.ph

.lr.ph:                                           ; preds = %8, %21
  %.01428 = phi ptr [ %.1, %21 ], [ %9, %8 ]
  %.01527 = phi i64 [ %.116, %21 ], [ %10, %8 ]
  %11 = tail call i64 @write(i32 noundef %3, ptr noundef %.01428, i64 noundef %.01527) #20
  %12 = icmp eq i64 %11, -1
  br i1 %12, label %13, label %18

13:                                               ; preds = %.lr.ph
  %14 = tail call ptr @__errno_location() #21
  %15 = load i32, ptr %14, align 4, !tbaa !147
  %16 = icmp eq i32 %15, 4
  br i1 %16, label %21, label %.thread

.thread:                                          ; preds = %13
  %17 = tail call ptr @strerror(i32 noundef %15) #20
  tail call void (i32, ptr, ...) @_glfwInputError(i32 noundef 65544, ptr noundef nonnull @.str.75, ptr noundef %17) #20
  br label %.loopexit

18:                                               ; preds = %.lr.ph
  %19 = sub i64 %.01527, %11
  %20 = getelementptr inbounds i8, ptr %.01428, i64 %11
  br label %21

21:                                               ; preds = %13, %18
  %.116 = phi i64 [ %19, %18 ], [ %.01527, %13 ]
  %.1 = phi ptr [ %20, %18 ], [ %.01428, %13 ]
  %.not20 = icmp eq i64 %.116, 0
  br i1 %.not20, label %.loopexit, label %.lr.ph

.loopexit:                                        ; preds = %21, %.thread, %8, %4, %6
  %22 = tail call i32 @close(i32 noundef %3) #20
  ret void
}